; Function Attrs: mustprogress uwtable
define ptr @_ZN21MeshDocumentStateData5beginEv(ptr noundef nonnull align 8 dereferenceable(16) %0) local_unnamed_addr #10 align 2 personality ptr @__gxx_personality_v0 {
_ZN11QReadLockerC2EP14QReadWriteLock.exit:
  %1 = alloca %class.QReadLocker, align 8
  %2 = ptrtoint ptr %0 to i64
  tail call void @_ZN14QReadWriteLock11lockForReadEv(ptr noundef nonnull align 8 dereferenceable(8) %0)
  %3 = or disjoint i64 %2, 1
  store i64 %3, ptr %1, align 8
  %4 = getelementptr inbounds nuw i8, ptr %0, i64 8
  %5 = load ptr, ptr %4, align 8
  %6 = load atomic i32, ptr %5 monotonic, align 4
  %7 = icmp ugt i32 %6, 1
  br i1 %7, label %8, label %9

8:                                                ; preds = %_ZN11QReadLockerC2EP14QReadWriteLock.exit
  invoke void @_ZN4QMapIi18MeshModelStateDataE13detach_helperEv(ptr noundef nonnull align 8 dereferenceable(8) %4)
          to label %.noexc unwind label %19

.noexc:                                           ; preds = %8
  %.pre.i = load ptr, ptr %4, align 8
  br label %9

9:                                                ; preds = %_ZN11QReadLockerC2EP14QReadWriteLock.exit, %.noexc
  %10 = phi ptr [ %5, %_ZN11QReadLockerC2EP14QReadWriteLock.exit ], [ %.pre.i, %.noexc ]
  %11 = getelementptr inbounds nuw i8, ptr %10, i64 16
  %12 = load ptr, ptr %11, align 8
  %13 = getelementptr inbounds nuw i8, ptr %10, i64 32
  %14 = load ptr, ptr %13, align 8
  invoke void @_ZN14QReadWriteLock6unlockEv(ptr noundef nonnull align 8 dereferenceable(8) %0)
          to label %_ZN11QReadLockerD2Ev.exit unwind label %15

15:                                               ; preds = %9
  %16 = landingpad { ptr, i32 }
          catch ptr null
  %17 = extractvalue { ptr, i32 } %16, 0
  tail call void @__clang_call_terminate(ptr %17) #17
  unreachable

_ZN11QReadLockerD2Ev.exit:                        ; preds = %9
  %.not.i.i = icmp eq ptr %12, null
  %18 = getelementptr inbounds nuw i8, ptr %10, i64 8
  %.0.i.i = select i1 %.not.i.i, ptr %18, ptr %14
  ret ptr %.0.i.i

19:                                               ; preds = %8
  %20 = landingpad { ptr, i32 }
          cleanup
  call void @_ZN11QReadLockerD2Ev(ptr noundef nonnull align 8 dereferenceable(8) %1) #16
  resume { ptr, i32 } %20
}